; Function Attrs: nounwind uwtable
define internal void @aes_siv_freectx(ptr noundef %0) #0 {
  %.not = icmp eq ptr %0, null
  br i1 %.not, label %7, label %2

2:                                                ; preds = %1
  %3 = getelementptr inbounds nuw i8, ptr %0, i64 104
  %4 = load ptr, ptr %3, align 8, !tbaa !19
  %5 = getelementptr inbounds nuw i8, ptr %4, i64 32
  %6 = load ptr, ptr %5, align 8, !tbaa !21
  tail call void %6(ptr noundef nonnull %0) #4
  tail call void @CRYPTO_clear_free(ptr noundef nonnull %0, i64 noundef 120, ptr noundef nonnull @.str, i32 noundef 55) #4
  br label %7

7:                                                ; preds = %2, %1
  ret void
}